; Function Attrs: mustprogress uwtable
define internal fastcc void @_ZN10open_spiel11negotiation12_GLOBAL__N_116TurnTypeToStringB5cxx11ENS0_8TurnTypeE(ptr dead_on_unwind noalias writable align 8 %0, i32 noundef %1) unnamed_addr #3 personality ptr @__gxx_personality_v0 {
  %3 = alloca %"class.std::allocator", align 1
  %4 = alloca %"class.std::allocator", align 1
  %5 = alloca %"class.std::__cxx11::basic_string", align 8
  %6 = alloca %"class.std::allocator", align 1
  switch i32 %1, label %19 [
    i32 1, label %7
    i32 0, label %13
  ]

7:                                                ; preds = %2
  call void @_ZNSaIcEC1Ev(ptr noundef nonnull align 1 dereferenceable(1) %3) #32
  %8 = invoke noundef ptr @_ZNSt7__cxx1112basic_stringIcSt11char_traitsIcESaIcEE13_M_local_dataEv(ptr noundef nonnull align 8 dereferenceable(32) %0)
          to label %.noexc unwind label %11

.noexc:                                           ; preds = %7
  invoke void @_ZNSt7__cxx1112basic_stringIcSt11char_traitsIcESaIcEE12_Alloc_hiderC1EPcRKS3_(ptr noundef nonnull align 8 dereferenceable(8) %0, ptr noundef %8, ptr noundef nonnull align 1 dereferenceable(1) %3)
          to label %.noexc9 unwind label %11

.noexc9:                                          ; preds = %.noexc
  invoke void @_ZNSt7__cxx1112basic_stringIcSt11char_traitsIcESaIcEE12_M_constructIPKcEEvT_S8_St20forward_iterator_tag(ptr noundef nonnull align 8 dereferenceable(32) %0, ptr noundef nonnull @.str.69, ptr noundef nonnull getelementptr inbounds (i8, ptr @.str.69, i64 8))
          to label %_ZNSt7__cxx1112basic_stringIcSt11char_traitsIcESaIcEEC2IS3_EEPKcRKS3_.exit unwind label %9

9:                                                ; preds = %.noexc9
  %10 = landingpad { ptr, i32 }
          cleanup
  call void @_ZNSaIcED2Ev(ptr noundef nonnull align 1 dereferenceable(1) %0) #32
  br label %.body

11:                                               ; preds = %.noexc, %7
  %12 = landingpad { ptr, i32 }
          cleanup
  br label %.body

13:                                               ; preds = %2
  call void @_ZNSaIcEC1Ev(ptr noundef nonnull align 1 dereferenceable(1) %4) #32
  %14 = invoke noundef ptr @_ZNSt7__cxx1112basic_stringIcSt11char_traitsIcESaIcEE13_M_local_dataEv(ptr noundef nonnull align 8 dereferenceable(32) %0)
          to label %.noexc10 unwind label %17

.noexc10:                                         ; preds = %13
  invoke void @_ZNSt7__cxx1112basic_stringIcSt11char_traitsIcESaIcEE12_Alloc_hiderC1EPcRKS3_(ptr noundef nonnull align 8 dereferenceable(8) %0, ptr noundef %14, ptr noundef nonnull align 1 dereferenceable(1) %4)
          to label %.noexc11 unwind label %17

.noexc11:                                         ; preds = %.noexc10
  invoke void @_ZNSt7__cxx1112basic_stringIcSt11char_traitsIcESaIcEE12_M_constructIPKcEEvT_S8_St20forward_iterator_tag(ptr noundef nonnull align 8 dereferenceable(32) %0, ptr noundef nonnull @.str.70, ptr noundef nonnull getelementptr inbounds (i8, ptr @.str.70, i64 9))
          to label %_ZNSt7__cxx1112basic_stringIcSt11char_traitsIcESaIcEEC2IS3_EEPKcRKS3_.exit unwind label %15

15:                                               ; preds = %.noexc11
  %16 = landingpad { ptr, i32 }
          cleanup
  call void @_ZNSaIcED2Ev(ptr noundef nonnull align 1 dereferenceable(1) %0) #32
  br label %.body

17:                                               ; preds = %.noexc10, %13
  %18 = landingpad { ptr, i32 }
          cleanup
  br label %.body

19:                                               ; preds = %2
  call void @_ZNSaIcEC1Ev(ptr noundef nonnull align 1 dereferenceable(1) %6) #32
  invoke void @_ZNSt7__cxx1112basic_stringIcSt11char_traitsIcESaIcEEC2IS3_EEPKcRKS3_(ptr noundef nonnull align 8 dereferenceable(32) %5, ptr noundef nonnull @.str.71, ptr noundef nonnull align 1 dereferenceable(1) %6)
          to label %20 unwind label %22

20:                                               ; preds = %19
  invoke void @_ZN10open_spiel15SpielFatalErrorERKNSt7__cxx1112basic_stringIcSt11char_traitsIcESaIcEEE(ptr noundef nonnull align 8 dereferenceable(32) %5) #31
          to label %21 unwind label %24

21:                                               ; preds = %20
  unreachable

22:                                               ; preds = %19
  %23 = landingpad { ptr, i32 }
          cleanup
  br label %.body

24:                                               ; preds = %20
  %25 = landingpad { ptr, i32 }
          cleanup
  call void @_ZNSt7__cxx1112basic_stringIcSt11char_traitsIcESaIcEED1Ev(ptr noundef nonnull align 8 dereferenceable(32) %5) #32
  br label %.body

_ZNSt7__cxx1112basic_stringIcSt11char_traitsIcESaIcEEC2IS3_EEPKcRKS3_.exit: ; preds = %.noexc11, %.noexc9
  %.sink = phi ptr [ %3, %.noexc9 ], [ %4, %.noexc11 ]
  call void @_ZNSaIcED1Ev(ptr noundef nonnull align 1 dereferenceable(1) %.sink) #32
  ret void

.body:                                            ; preds = %22, %24, %17, %15, %11, %9
  %.sink15 = phi ptr [ %3, %9 ], [ %3, %11 ], [ %4, %15 ], [ %4, %17 ], [ %6, %24 ], [ %6, %22 ]
  %.pn7 = phi { ptr, i32 } [ %10, %9 ], [ %12, %11 ], [ %16, %15 ], [ %18, %17 ], [ %25, %24 ], [ %23, %22 ]
  call void @_ZNSaIcED1Ev(ptr noundef nonnull align 1 dereferenceable(1) %.sink15) #32
  resume { ptr, i32 } %.pn7
}